target datalayout = "e-m:e-p270:32:32-p271:32:32-p272:64:64-i64:64-i128:128-f80:128-n8:16:32:64-S128"
target triple = "x86_64-pc-linux-gnu"

%"class.std::__cxx11::basic_string" = type { %"struct.std::__cxx11::basic_string<char>::_Alloc_hider", i64, %union.anon }
%"struct.std::__cxx11::basic_string<char>::_Alloc_hider" = type { ptr }
%union.anon = type { i64, [8 x i8] }
%"class.std::shared_ptr" = type { %"class.std::__shared_ptr" }
%"class.std::__shared_ptr" = type { ptr, %"class.std::__shared_count" }
%"class.std::__shared_count" = type { ptr }
%"class.open_spiel::connect_four::ConnectFourState" = type { %"class.open_spiel::State.base", i32, i32, %"struct.std::array", [4 x i8] }
%"class.open_spiel::State.base" = type <{ ptr, %"class.std::shared_ptr", i32, i32, %"class.std::vector", i32 }>
%"class.std::vector" = type { %"struct.std::_Vector_base" }
%"struct.std::_Vector_base" = type { %"struct.std::_Vector_base<open_spiel::State::PlayerAction, std::allocator<open_spiel::State::PlayerAction>>::_Vector_impl" }
%"struct.std::_Vector_base<open_spiel::State::PlayerAction, std::allocator<open_spiel::State::PlayerAction>>::_Vector_impl" = type { %"struct.std::_Vector_base<open_spiel::State::PlayerAction, std::allocator<open_spiel::State::PlayerAction>>::_Vector_impl_data" }
%"struct.std::_Vector_base<open_spiel::State::PlayerAction, std::allocator<open_spiel::State::PlayerAction>>::_Vector_impl_data" = type { ptr, ptr, ptr }
%"struct.std::array" = type { [42 x i32] }
%"class.absl::debian2::AlphaNum" = type { %"class.absl::debian2::string_view", [32 x i8] }
%"class.absl::debian2::string_view" = type { ptr, i64 }
%class.anon = type { i8 }

@.str.26 = private unnamed_addr constant [19 x i8] c"Invalid player id \00", align 1

; Function Attrs: mustprogress nounwind uwtable
define linkonce_odr void @_ZZN4absl7debian211string_view19CheckLengthInternalEmENKUlvE_clEv(ptr noundef nonnull align 1 dereferenceable(1) %0) #6 comdat align 2 {
  %2 = alloca ptr, align 8
  store ptr %0, ptr %2, align 8
  br label %3

3:                                                ; preds = %1
  call void @llvm.trap()
  unreachable

4:                                                ; No predecessors!
  ret void
}

; Function Attrs: mustprogress uwtable
define linkonce_odr noundef i64 @_ZN4absl7debian211string_view19CheckLengthInternalEm(i64 noundef %0) #4 comdat align 2 {
  %2 = alloca i64, align 8
  %3 = alloca %class.anon, align 1
  store i64 %0, ptr %2, align 8
  %4 = load i64, ptr %2, align 8
  %5 = icmp ule i64 %4, 9223372036854775807
  br i1 %5, label %6, label %7

6:                                                ; preds = %1
  br label %8

7:                                                ; preds = %1
  call void @_ZZN4absl7debian211string_view19CheckLengthInternalEmENKUlvE_clEv(ptr noundef nonnull align 1 dereferenceable(1) %3)
  br label %8

8:                                                ; preds = %7, %6
  %9 = load i64, ptr %2, align 8
  ret i64 %9
}

; Function Attrs: mustprogress nounwind uwtable
define linkonce_odr noundef i64 @_ZN4absl7debian211string_view14StrlenInternalEPKc(ptr noundef %0) #6 comdat align 2 {
  %2 = alloca ptr, align 8
  store ptr %0, ptr %2, align 8
  %3 = load ptr, ptr %2, align 8
  %4 = call i64 @strlen(ptr noundef %3) #3
  ret i64 %4
}

; Function Attrs: mustprogress nounwind uwtable
define linkonce_odr noundef nonnull align 4 dereferenceable(4) ptr @_ZNSt14__array_traitsIN10open_spiel12connect_four9CellStateELm42EE6_S_refERA42_KS2_m(ptr noundef nonnull align 4 dereferenceable(168) %0, i64 noundef %1) #6 comdat align 2 {
  %3 = alloca ptr, align 8
  %4 = alloca i64, align 8
  store ptr %0, ptr %3, align 8
  store i64 %1, ptr %4, align 8
  %5 = load ptr, ptr %3, align 8
  %6 = load i64, ptr %4, align 8
  %7 = getelementptr inbounds [42 x i32], ptr %5, i64 0, i64 %6
  ret ptr %7
}

; Function Attrs: mustprogress uwtable
define linkonce_odr void @_ZN4absl7debian211string_viewC2EPKcm(ptr noundef nonnull align 8 dereferenceable(16) %0, ptr noundef %1, i64 noundef %2) unnamed_addr #4 comdat align 2 {
  %4 = alloca ptr, align 8
  %5 = alloca ptr, align 8
  %6 = alloca i64, align 8
  store ptr %0, ptr %4, align 8
  store ptr %1, ptr %5, align 8
  store i64 %2, ptr %6, align 8
  %7 = load ptr, ptr %4, align 8
  %8 = getelementptr inbounds nuw %"class.absl::debian2::string_view", ptr %7, i32 0, i32 0
  %9 = load ptr, ptr %5, align 8
  store ptr %9, ptr %8, align 8
  %10 = getelementptr inbounds nuw %"class.absl::debian2::string_view", ptr %7, i32 0, i32 1
  %11 = load i64, ptr %6, align 8
  %12 = call noundef i64 @_ZN4absl7debian211string_view19CheckLengthInternalEm(i64 noundef %11)
  store i64 %12, ptr %10, align 8
  ret void
}

; Function Attrs: mustprogress uwtable
define linkonce_odr void @_ZN4absl7debian211string_viewC2EPKc(ptr noundef nonnull align 8 dereferenceable(16) %0, ptr noundef %1) unnamed_addr #4 comdat align 2 {
  %3 = alloca ptr, align 8
  %4 = alloca ptr, align 8
  store ptr %0, ptr %3, align 8
  store ptr %1, ptr %4, align 8
  %5 = load ptr, ptr %3, align 8
  %6 = getelementptr inbounds nuw %"class.absl::debian2::string_view", ptr %5, i32 0, i32 0
  %7 = load ptr, ptr %4, align 8
  store ptr %7, ptr %6, align 8
  %8 = getelementptr inbounds nuw %"class.absl::debian2::string_view", ptr %5, i32 0, i32 1
  %9 = load ptr, ptr %4, align 8
  %10 = icmp ne ptr %9, null
  br i1 %10, label %11, label %15

11:                                               ; preds = %2
  %12 = load ptr, ptr %4, align 8
  %13 = call noundef i64 @_ZN4absl7debian211string_view14StrlenInternalEPKc(ptr noundef %12)
  %14 = call noundef i64 @_ZN4absl7debian211string_view19CheckLengthInternalEm(i64 noundef %13)
  br label %16

15:                                               ; preds = %2
  br label %16

16:                                               ; preds = %15, %11
  %17 = phi i64 [ %14, %11 ], [ 0, %15 ]
  store i64 %17, ptr %8, align 8
  ret void
}

; Function Attrs: mustprogress nounwind uwtable
define linkonce_odr noundef nonnull align 4 dereferenceable(4) ptr @_ZNKSt5arrayIN10open_spiel12connect_four9CellStateELm42EEixEm(ptr noundef nonnull align 4 dereferenceable(168) %0, i64 noundef %1) #6 comdat align 2 {
  %3 = alloca ptr, align 8
  %4 = alloca i64, align 8
  store ptr %0, ptr %3, align 8
  store i64 %1, ptr %4, align 8
  %5 = load ptr, ptr %3, align 8
  %6 = getelementptr inbounds nuw %"struct.std::array", ptr %5, i32 0, i32 0
  %7 = load i64, ptr %4, align 8
  %8 = call noundef nonnull align 4 dereferenceable(4) ptr @_ZNSt14__array_traitsIN10open_spiel12connect_four9CellStateELm42EE6_S_refERA42_KS2_m(ptr noundef nonnull align 4 dereferenceable(168) %6, i64 noundef %7) #3
  ret ptr %8
}

; Function Attrs: mustprogress uwtable
define linkonce_odr void @_ZN4absl7debian28AlphaNumC2Ei(ptr noundef nonnull align 8 dereferenceable(48) %0, i32 noundef %1) unnamed_addr #4 comdat align 2 {
  %3 = alloca ptr, align 8
  %4 = alloca i32, align 4
  store ptr %0, ptr %3, align 8
  store i32 %1, ptr %4, align 4
  %5 = load ptr, ptr %3, align 8
  %6 = getelementptr inbounds nuw %"class.absl::debian2::AlphaNum", ptr %5, i32 0, i32 0
  %7 = getelementptr inbounds nuw %"class.absl::debian2::AlphaNum", ptr %5, i32 0, i32 1
  %8 = getelementptr inbounds [32 x i8], ptr %7, i64 0, i64 0
  %9 = load i32, ptr %4, align 4
  %10 = getelementptr inbounds nuw %"class.absl::debian2::AlphaNum", ptr %5, i32 0, i32 1
  %11 = getelementptr inbounds [32 x i8], ptr %10, i64 0, i64 0
  %12 = call noundef ptr @_ZN4absl7debian216numbers_internal15FastIntToBufferEiPc(i32 noundef %9, ptr noundef %11)
  %13 = getelementptr inbounds nuw %"class.absl::debian2::AlphaNum", ptr %5, i32 0, i32 1
  %14 = getelementptr inbounds [32 x i8], ptr %13, i64 0, i64 0
  %15 = ptrtoint ptr %12 to i64
  %16 = ptrtoint ptr %14 to i64
  %17 = sub i64 %15, %16
  call void @_ZN4absl7debian211string_viewC2EPKcm(ptr noundef nonnull align 8 dereferenceable(16) %6, ptr noundef %8, i64 noundef %17)
  ret void
}

; Function Attrs: mustprogress uwtable
define linkonce_odr void @_ZN4absl7debian28AlphaNumC2EPKc(ptr noundef nonnull align 8 dereferenceable(48) %0, ptr noundef %1) unnamed_addr #4 comdat align 2 {
  %3 = alloca ptr, align 8
  %4 = alloca ptr, align 8
  store ptr %0, ptr %3, align 8
  store ptr %1, ptr %4, align 8
  %5 = load ptr, ptr %3, align 8
  %6 = getelementptr inbounds nuw %"class.absl::debian2::AlphaNum", ptr %5, i32 0, i32 0
  %7 = load ptr, ptr %4, align 8
  call void @_ZN4absl7debian211string_viewC2EPKc(ptr noundef nonnull align 8 dereferenceable(16) %6, ptr noundef %7)
  ret void
}

; Function Attrs: mustprogress uwtable
define noundef zeroext i1 @_ZNK10open_spiel12connect_four16ConnectFourState11HasLineFromEiii(ptr noundef nonnull align 8 dereferenceable(236) %0, i32 noundef %1, i32 noundef %2, i32 noundef %3) #4 align 2 {
  %5 = alloca ptr, align 8
  %6 = alloca i32, align 4
  %7 = alloca i32, align 4
  %8 = alloca i32, align 4
  store ptr %0, ptr %5, align 8
  store i32 %1, ptr %6, align 4
  store i32 %2, ptr %7, align 4
  store i32 %3, ptr %8, align 4
  %9 = load ptr, ptr %5, align 8
  %10 = load i32, ptr %6, align 4
  %11 = load i32, ptr %7, align 4
  %12 = load i32, ptr %8, align 4
  %13 = call noundef zeroext i1 @_ZNK10open_spiel12connect_four16ConnectFourState22HasLineFromInDirectionEiiiii(ptr noundef nonnull align 8 dereferenceable(236) %9, i32 noundef %10, i32 noundef %11, i32 noundef %12, i32 noundef 0, i32 noundef 1)
  br i1 %13, label %29, label %14

14:                                               ; preds = %4
  %15 = load i32, ptr %6, align 4
  %16 = load i32, ptr %7, align 4
  %17 = load i32, ptr %8, align 4
  %18 = call noundef zeroext i1 @_ZNK10open_spiel12connect_four16ConnectFourState22HasLineFromInDirectionEiiiii(ptr noundef nonnull align 8 dereferenceable(236) %9, i32 noundef %15, i32 noundef %16, i32 noundef %17, i32 noundef -1, i32 noundef -1)
  br i1 %18, label %29, label %19

19:                                               ; preds = %14
  %20 = load i32, ptr %6, align 4
  %21 = load i32, ptr %7, align 4
  %22 = load i32, ptr %8, align 4
  %23 = call noundef zeroext i1 @_ZNK10open_spiel12connect_four16ConnectFourState22HasLineFromInDirectionEiiiii(ptr noundef nonnull align 8 dereferenceable(236) %9, i32 noundef %20, i32 noundef %21, i32 noundef %22, i32 noundef -1, i32 noundef 0)
  br i1 %23, label %29, label %24

24:                                               ; preds = %19
  %25 = load i32, ptr %6, align 4
  %26 = load i32, ptr %7, align 4
  %27 = load i32, ptr %8, align 4
  %28 = call noundef zeroext i1 @_ZNK10open_spiel12connect_four16ConnectFourState22HasLineFromInDirectionEiiiii(ptr noundef nonnull align 8 dereferenceable(236) %9, i32 noundef %25, i32 noundef %26, i32 noundef %27, i32 noundef -1, i32 noundef 1)
  br label %29

29:                                               ; preds = %24, %19, %14, %4
  %30 = phi i1 [ true, %19 ], [ true, %14 ], [ true, %4 ], [ %28, %24 ]
  ret i1 %30
}

; Function Attrs: mustprogress nounwind uwtable
define noundef i32 @_ZNK10open_spiel12connect_four16ConnectFourState6CellAtEii(ptr noundef nonnull align 8 dereferenceable(236) %0, i32 noundef %1, i32 noundef %2) #6 align 2 {
  %4 = alloca ptr, align 8
  %5 = alloca i32, align 4
  %6 = alloca i32, align 4
  store ptr %0, ptr %4, align 8
  store i32 %1, ptr %5, align 4
  store i32 %2, ptr %6, align 4
  %7 = load ptr, ptr %4, align 8
  %8 = getelementptr inbounds nuw %"class.open_spiel::connect_four::ConnectFourState", ptr %7, i32 0, i32 3
  %9 = load i32, ptr %5, align 4
  %10 = mul nsw i32 %9, 7
  %11 = load i32, ptr %6, align 4
  %12 = add nsw i32 %10, %11
  %13 = sext i32 %12 to i64
  %14 = call noundef nonnull align 4 dereferenceable(4) ptr @_ZNKSt5arrayIN10open_spiel12connect_four9CellStateELm42EEixEm(ptr noundef nonnull align 4 dereferenceable(168) %8, i64 noundef %13) #3
  %15 = load i32, ptr %14, align 4
  ret i32 %15
}

; Function Attrs: mustprogress uwtable
define internal noundef i32 @_ZN10open_spiel12connect_four12_GLOBAL__N_113PlayerToStateEi(i32 noundef %0) #4 personality ptr @__gxx_personality_v0 {
  %2 = alloca i32, align 4
  %3 = alloca i32, align 4
  %4 = alloca %"class.std::__cxx11::basic_string", align 8
  %5 = alloca %"class.absl::debian2::AlphaNum", align 8
  %6 = alloca %"class.absl::debian2::AlphaNum", align 8
  %7 = alloca ptr, align 8
  %8 = alloca i32, align 4
  store i32 %0, ptr %3, align 4
  %9 = load i32, ptr %3, align 4
  switch i32 %9, label %12 [
    i32 0, label %10
    i32 1, label %11
  ]

10:                                               ; preds = %1
  store i32 2, ptr %2, align 4
  br label %19

11:                                               ; preds = %1
  store i32 1, ptr %2, align 4
  br label %19

12:                                               ; preds = %1
  call void @_ZN4absl7debian28AlphaNumC2EPKc(ptr noundef nonnull align 8 dereferenceable(48) %5, ptr noundef @.str.26)
  %13 = load i32, ptr %3, align 4
  call void @_ZN4absl7debian28AlphaNumC2Ei(ptr noundef nonnull align 8 dereferenceable(48) %6, i32 noundef %13)
  call void @_ZN4absl7debian26StrCatB5cxx11ERKNS0_8AlphaNumES3_(ptr dead_on_unwind writable sret(%"class.std::__cxx11::basic_string") align 8 %4, ptr noundef nonnull align 8 dereferenceable(48) %5, ptr noundef nonnull align 8 dereferenceable(48) %6)
  invoke void @_ZN10open_spiel15SpielFatalErrorERKNSt7__cxx1112basic_stringIcSt11char_traitsIcESaIcEEE(ptr noundef nonnull align 8 dereferenceable(32) %4) #15
          to label %14 unwind label %15

14:                                               ; preds = %12
  unreachable

15:                                               ; preds = %12
  %16 = landingpad { ptr, i32 }
          cleanup
  %17 = extractvalue { ptr, i32 } %16, 0
  store ptr %17, ptr %7, align 8
  %18 = extractvalue { ptr, i32 } %16, 1
  store i32 %18, ptr %8, align 4
  call void @_ZNSt7__cxx1112basic_stringIcSt11char_traitsIcESaIcEED1Ev(ptr noundef nonnull align 8 dereferenceable(32) %4) #3
  br label %21

19:                                               ; preds = %11, %10
  %20 = load i32, ptr %2, align 4
  ret i32 %20

21:                                               ; preds = %15
  %22 = load ptr, ptr %7, align 8
  %23 = load i32, ptr %8, align 4
  %24 = insertvalue { ptr, i32 } poison, ptr %22, 0
  %25 = insertvalue { ptr, i32 } %24, i32 %23, 1
  resume { ptr, i32 } %25
}

; Function Attrs: mustprogress uwtable
define noundef zeroext i1 @_ZNK10open_spiel12connect_four16ConnectFourState7HasLineEi(ptr noundef nonnull align 8 dereferenceable(236) %0, i32 noundef %1) #4 align 2 {
  %3 = alloca i1, align 1
  %4 = alloca ptr, align 8
  %5 = alloca i32, align 4
  %6 = alloca i32, align 4
  %7 = alloca i32, align 4
  %8 = alloca i32, align 4
  store ptr %0, ptr %4, align 8
  store i32 %1, ptr %5, align 4
  %9 = load ptr, ptr %4, align 8
  %10 = load i32, ptr %5, align 4
  %11 = call noundef i32 @_ZN10open_spiel12connect_four12_GLOBAL__N_113PlayerToStateEi(i32 noundef %10)
  store i32 %11, ptr %6, align 4
  store i32 0, ptr %7, align 4
  br label %12

12:                                               ; preds = %36, %2
  %13 = load i32, ptr %7, align 4
  %14 = icmp slt i32 %13, 7
  br i1 %14, label %15, label %39

15:                                               ; preds = %12
  store i32 0, ptr %8, align 4
  br label %16

16:                                               ; preds = %32, %15
  %17 = load i32, ptr %8, align 4
  %18 = icmp slt i32 %17, 6
  br i1 %18, label %19, label %35

19:                                               ; preds = %16
  %20 = load i32, ptr %8, align 4
  %21 = load i32, ptr %7, align 4
  %22 = call noundef i32 @_ZNK10open_spiel12connect_four16ConnectFourState6CellAtEii(ptr noundef nonnull align 8 dereferenceable(236) %9, i32 noundef %20, i32 noundef %21)
  %23 = load i32, ptr %6, align 4
  %24 = icmp eq i32 %22, %23
  br i1 %24, label %25, label %31

25:                                               ; preds = %19
  %26 = load i32, ptr %5, align 4
  %27 = load i32, ptr %8, align 4
  %28 = load i32, ptr %7, align 4
  %29 = call noundef zeroext i1 @_ZNK10open_spiel12connect_four16ConnectFourState11HasLineFromEiii(ptr noundef nonnull align 8 dereferenceable(236) %9, i32 noundef %26, i32 noundef %27, i32 noundef %28)
  br i1 %29, label %30, label %31

30:                                               ; preds = %25
  store i1 true, ptr %3, align 1
  br label %40

31:                                               ; preds = %25, %19
  br label %32

32:                                               ; preds = %31
  %33 = load i32, ptr %8, align 4
  %34 = add nsw i32 %33, 1
  store i32 %34, ptr %8, align 4
  br label %16, !llvm.loop !6

35:                                               ; preds = %16
  br label %36

36:                                               ; preds = %35
  %37 = load i32, ptr %7, align 4
  %38 = add nsw i32 %37, 1
  store i32 %38, ptr %7, align 4
  br label %12, !llvm.loop !7

39:                                               ; preds = %12
  store i1 false, ptr %3, align 1
  br label %40

40:                                               ; preds = %39, %30
  %41 = load i1, ptr %3, align 1
  ret i1 %41
}