; Function Attrs: mustprogress uwtable
define noundef zeroext i1 @_ZNK10open_spiel12connect_four16ConnectFourState7HasLineEi(ptr noundef nonnull readonly align 8 captures(none) dereferenceable(236) %0, i32 noundef %1) local_unnamed_addr #3 align 2 personality ptr @__gxx_personality_v0 {
  %3 = alloca %"class.std::__cxx11::basic_string", align 8
  %4 = alloca %"class.absl::debian2::AlphaNum", align 8
  %5 = alloca %"class.absl::debian2::AlphaNum", align 8
  call void @llvm.lifetime.start.p0(i64 32, ptr nonnull %3)
  call void @llvm.lifetime.start.p0(i64 48, ptr nonnull %4)
  call void @llvm.lifetime.start.p0(i64 48, ptr nonnull %5)
  switch i32 %1, label %_ZN4absl7debian28AlphaNumC2EPKc.exit.i [
    i32 0, label %_ZN10open_spiel12connect_four12_GLOBAL__N_113PlayerToStateEi.exit
    i32 1, label %6
  ]

6:                                                ; preds = %2
  br label %_ZN10open_spiel12connect_four12_GLOBAL__N_113PlayerToStateEi.exit

_ZN4absl7debian28AlphaNumC2EPKc.exit.i:           ; preds = %2
  store ptr @.str.26, ptr %4, align 8
  %7 = getelementptr inbounds nuw i8, ptr %4, i64 8
  store i64 18, ptr %7, align 8
  %8 = getelementptr inbounds nuw i8, ptr %5, i64 16
  %9 = call noundef ptr @_ZN4absl7debian216numbers_internal15FastIntToBufferEiPc(i32 noundef %1, ptr noundef nonnull %8)
  %10 = ptrtoint ptr %9 to i64
  %11 = ptrtoint ptr %8 to i64
  %12 = sub i64 %10, %11
  store ptr %8, ptr %5, align 8
  %13 = icmp sgt i64 %12, -1
  br i1 %13, label %_ZN4absl7debian28AlphaNumC2Ei.exit.i, label %14

14:                                               ; preds = %_ZN4absl7debian28AlphaNumC2EPKc.exit.i
  call void @llvm.trap()
  unreachable

_ZN4absl7debian28AlphaNumC2Ei.exit.i:             ; preds = %_ZN4absl7debian28AlphaNumC2EPKc.exit.i
  %15 = getelementptr inbounds nuw i8, ptr %5, i64 8
  store i64 %12, ptr %15, align 8
  call void @_ZN4absl7debian26StrCatB5cxx11ERKNS0_8AlphaNumES3_(ptr dead_on_unwind nonnull writable sret(%"class.std::__cxx11::basic_string") align 8 %3, ptr noundef nonnull align 8 dereferenceable(48) %4, ptr noundef nonnull align 8 dereferenceable(48) %5)
  invoke void @_ZN10open_spiel15SpielFatalErrorERKNSt7__cxx1112basic_stringIcSt11char_traitsIcESaIcEEE(ptr noundef nonnull align 8 dereferenceable(32) %3) #24
          to label %16 unwind label %17

16:                                               ; preds = %_ZN4absl7debian28AlphaNumC2Ei.exit.i
  unreachable

17:                                               ; preds = %_ZN4absl7debian28AlphaNumC2Ei.exit.i
  %18 = landingpad { ptr, i32 }
          cleanup
  call void @_ZNSt7__cxx1112basic_stringIcSt11char_traitsIcESaIcEED1Ev(ptr noundef nonnull align 8 dereferenceable(32) %3) #25
  resume { ptr, i32 } %18

_ZN10open_spiel12connect_four12_GLOBAL__N_113PlayerToStateEi.exit: ; preds = %2, %6
  %.0.i = phi i32 [ 1, %6 ], [ 2, %2 ]
  call void @llvm.lifetime.end.p0(i64 32, ptr nonnull %3)
  call void @llvm.lifetime.end.p0(i64 48, ptr nonnull %4)
  call void @llvm.lifetime.end.p0(i64 48, ptr nonnull %5)
  %19 = getelementptr inbounds nuw i8, ptr %0, i64 68
  br label %.preheader

.preheader:                                       ; preds = %_ZN10open_spiel12connect_four12_GLOBAL__N_113PlayerToStateEi.exit, %36
  %indvars.iv20 = phi i64 [ 0, %_ZN10open_spiel12connect_four12_GLOBAL__N_113PlayerToStateEi.exit ], [ %indvars.iv.next21, %36 ]
  %20 = trunc nuw nsw i64 %indvars.iv20 to i32
  br label %21

21:                                               ; preds = %.preheader, %35
  %indvars.iv = phi i64 [ 0, %.preheader ], [ %indvars.iv.next, %35 ]
  %22 = mul nuw nsw i64 %indvars.iv, 7
  %23 = add nuw nsw i64 %22, %indvars.iv20
  %24 = getelementptr inbounds nuw [42 x i32], ptr %19, i64 0, i64 %23
  %25 = load i32, ptr %24, align 4
  %26 = icmp eq i32 %25, %.0.i
  br i1 %26, label %27, label %35

27:                                               ; preds = %21
  %28 = trunc nuw nsw i64 %indvars.iv to i32
  %29 = tail call noundef zeroext i1 @_ZNK10open_spiel12connect_four16ConnectFourState22HasLineFromInDirectionEiiiii(ptr noundef nonnull readonly align 8 dereferenceable(236) %0, i32 noundef %1, i32 noundef %28, i32 noundef %20, i32 noundef 0, i32 noundef 1)
  br i1 %29, label %_ZNK10open_spiel12connect_four16ConnectFourState11HasLineFromEiii.exit.thread, label %30

30:                                               ; preds = %27
  %31 = tail call noundef zeroext i1 @_ZNK10open_spiel12connect_four16ConnectFourState22HasLineFromInDirectionEiiiii(ptr noundef nonnull readonly align 8 dereferenceable(236) %0, i32 noundef %1, i32 noundef %28, i32 noundef %20, i32 noundef -1, i32 noundef -1)
  br i1 %31, label %_ZNK10open_spiel12connect_four16ConnectFourState11HasLineFromEiii.exit.thread, label %32

32:                                               ; preds = %30
  %33 = tail call noundef zeroext i1 @_ZNK10open_spiel12connect_four16ConnectFourState22HasLineFromInDirectionEiiiii(ptr noundef nonnull readonly align 8 dereferenceable(236) %0, i32 noundef %1, i32 noundef %28, i32 noundef %20, i32 noundef -1, i32 noundef 0)
  br i1 %33, label %_ZNK10open_spiel12connect_four16ConnectFourState11HasLineFromEiii.exit.thread, label %_ZNK10open_spiel12connect_four16ConnectFourState11HasLineFromEiii.exit

_ZNK10open_spiel12connect_four16ConnectFourState11HasLineFromEiii.exit: ; preds = %32
  %34 = tail call noundef zeroext i1 @_ZNK10open_spiel12connect_four16ConnectFourState22HasLineFromInDirectionEiiiii(ptr noundef nonnull readonly align 8 dereferenceable(236) %0, i32 noundef %1, i32 noundef %28, i32 noundef %20, i32 noundef -1, i32 noundef 1)
  br i1 %34, label %_ZNK10open_spiel12connect_four16ConnectFourState11HasLineFromEiii.exit.thread, label %35

35:                                               ; preds = %21, %_ZNK10open_spiel12connect_four16ConnectFourState11HasLineFromEiii.exit
  %indvars.iv.next = add nuw nsw i64 %indvars.iv, 1
  %exitcond.not = icmp eq i64 %indvars.iv.next, 6
  br i1 %exitcond.not, label %36, label %21, !llvm.loop !7

36:                                               ; preds = %35
  %indvars.iv.next21 = add nuw nsw i64 %indvars.iv20, 1
  %exitcond23.not = icmp eq i64 %indvars.iv.next21, 7
  br i1 %exitcond23.not, label %_ZNK10open_spiel12connect_four16ConnectFourState11HasLineFromEiii.exit.thread, label %.preheader, !llvm.loop !8

_ZNK10open_spiel12connect_four16ConnectFourState11HasLineFromEiii.exit.thread: ; preds = %36, %27, %30, %32, %_ZNK10open_spiel12connect_four16ConnectFourState11HasLineFromEiii.exit
  %37 = phi i1 [ true, %_ZNK10open_spiel12connect_four16ConnectFourState11HasLineFromEiii.exit ], [ true, %32 ], [ true, %30 ], [ true, %27 ], [ false, %36 ]
  ret i1 %37
}